; Function Attrs: nounwind uwtable
define internal void @VULKAN_DrawPrimitives(ptr noundef %0, i32 noundef %1, i32 noundef %2, i32 noundef %3, i32 noundef %4) #0 {
  %6 = getelementptr inbounds nuw i8, ptr %0, i64 128
  %7 = load ptr, ptr %6, align 8
  tail call fastcc void @VULKAN_INTERNAL_BindGraphicsDescriptorSets(ptr noundef %7, ptr noundef %0)
  %8 = getelementptr inbounds nuw i8, ptr %7, i64 2912
  %9 = load ptr, ptr %8, align 8
  %10 = getelementptr inbounds nuw i8, ptr %0, i64 136
  %11 = load ptr, ptr %10, align 8
  tail call void %9(ptr noundef %11, i32 noundef %1, i32 noundef %2, i32 noundef %3, i32 noundef %4) #13
  ret void
}